MPASM 5.76                          MAIN.ASM   2-9-2018  13:22:11         PAGE  1


LOC  OBJECT CODE     LINE SOURCE TEXT
  VALUE

Warning[205]: Found directive in column 1. (list)
                      00001 list        p=16F684    
Warning[205]: Found directive in column 1. (INCLUDE)
                      00002 INCLUDE "p16f684.inc"
                      00001         LIST
                      00002 
                      00003 ;==========================================================================
                      00004 ; Build date : Sep 19 2017
                      00005 ;  MPASM PIC16F684 processor include
                      00006 ; 
                      00007 ;  (c) Copyright 1999-2017 Microchip Technology, All rights reserved
                      00008 ;==========================================================================
                      00009 
                      00524         LIST
                      00003 ;errorlevel  -302    ; no "register not in bank 0" warnings 
                      00004 ;errorlevel  -305    ; no "page or bank selection not needed for this device" messages
                      00005 ; ******* COMPILER configuration bits *****************************************************
                      00006 ; ext reset, no code or data protect, no brownout detect,
                      00007 ; no watchdog, power-up timer, int clock with I/O,
                      00008 ; no failsafe clock monitor, two-speed start-up disabled 
2007   30C4           00009  __CONFIG _FCMEN_OFF & _IESO_OFF & _BOD_OFF & _CPD_OFF &  _CP_OFF & _MCLRE_OFF & _PWRTE_ON & _WDT_OFF & 
                            _INTRC_OSC_NOCLKOUT
                      00010 
                      00011 ; ******* Vectors ***************************************************   
                      00012     ORG     0x0000      ;Processor reset vector
0000   2???           00013     goto    INIT
                      00014 
                      00015     ORG     0x0004      ;Interrupt service routine vector
0004   2???           00016     goto    ISR
                      00017     
                      00018 ; ******* CONSTANTS *************************************************
                      00019     ;Step table
                      00020     ;All off            b'00111000'
                      00021     ;All on (NEVER USE) b'00000111'
Warning[207]: Found label after column 1. (STEPOFF)
  00000038            00022     STEPOFF         EQU b'00111000' ;All off
Warning[207]: Found label after column 1. (STEP0)
  00000029            00023     STEP0           EQU b'00101001' ;0+4 on
Warning[207]: Found label after column 1. (STEP1)
  0000002C            00024     STEP1           EQU b'00101100' ;2+4 on
Warning[207]: Found label after column 1. (STEP2)
  00000034            00025     STEP2           EQU b'00110100' ;2+3 on
Warning[207]: Found label after column 1. (STEP3)
  00000032            00026     STEP3           EQU b'00110010' ;1+3 on
Warning[207]: Found label after column 1. (STEP4)
  0000001A            00027     STEP4           EQU b'00011010' ;1+5 on
Warning[207]: Found label after column 1. (STEP5)
  00000019            00028     STEP5           EQU b'00011001' ;0+5 on
                      00029    
Warning[207]: Found label after column 1. (TMR_OPN_LP_LIM)
  000000FE            00030     TMR_OPN_LP_LIM  EQU d'254'  ;254
                      00031             
                      00032     ;ESTAT bits
MPASM 5.76                          MAIN.ASM   2-9-2018  13:22:11         PAGE  2


LOC  OBJECT CODE     LINE SOURCE TEXT
  VALUE

Warning[207]: Found label after column 1. (DRV_RUN)
  00000000            00033     DRV_RUN         EQU d'0'
Warning[207]: Found label after column 1. (DRV_NEXT_EMFVAL)
  00000001            00034     DRV_NEXT_EMFVAL EQU d'1'
Warning[207]: Found label after column 1. (TMR_CLS_LOOP)
  00000002            00035     TMR_CLS_LOOP    EQU d'2'        ;1 = BEMF control, 0 = Timer control
                      00036             
                      00037     cblock  0x70
  00000070            00038     DRV_CUR_STEP
  00000071            00039     ESTAT
  00000072            00040     TEMPA
  00000073            00041     TEMPB
  00000074            00042     TMR_CYCLES1
  00000075            00043     TMR_CYCLES2
                      00044     endc
                      00045 
                      00046 ; ******* MODULES ***************************************************
                      00047 #INCLUDE    "driver.inc"
0005                  00001 DRV_INIT
0005   01F0           00002     CLRF    DRV_CUR_STEP        ;Reset step counter
0006   1071           00003     BCF     ESTAT, DRV_RUN      ;Set driver state to off
0007   14F1           00004     BSF     ESTAT, DRV_NEXT_EMFVAL  ;Set next BEMF state to high
                      00005     
0008   1283           00006     BCF     STATUS, RP0         ;BANK 0
                      00007     
0009   3007           00008     MOVLW   b'00000111'         ;Turn comparators off
Message[305]: Using default destination of 1 (file).
000A   0499           00009     IORWF   CMCON0              ;
                      00010         
000B   3038           00011     MOVLW   STEPOFF             ;Turn off all driver pins
000C   0087           00012     MOVWF   PORTC               ;
                      00013     
000D   1683           00014     BSF     STATUS, RP0         ;BANK 1
Message[302]: Register in operand not in bank 0.  Ensure that bank bits are correct.
000E   0187           00015     CLRF    TRISC               ;Set driver control pins to output
                      00016     
000F   3007           00017     MOVLW   b'0000111'          ;Make output pins digital
Message[302]: Register in operand not in bank 0.  Ensure that bank bits are correct.
0010   0591           00018     ANDWF   ANSEL, F        
                      00019     
0011   0008           00020     RETURN
                      00021 
0012                  00022 DRV_START
0012   1471           00023     BSF     ESTAT, DRV_RUN      ;Set driver run to on
                      00024     
0013   0008           00025     RETURN
                      00026     
0014                  00027 DRV_STOP
0014   1071           00028     BCF     ESTAT, DRV_RUN      ;Set driver run to off
                      00029     
                      00030     ;Turn off all driver pins
0015   1283           00031     BCF     STATUS, RP0         ;BANK 0
0016   3038           00032     MOVLW   STEPOFF   
MPASM 5.76                          MAIN.ASM   2-9-2018  13:22:11         PAGE  3


LOC  OBJECT CODE     LINE SOURCE TEXT
  VALUE

0017   0087           00033     MOVWF   PORTC          
                      00034     
0018   0008           00035     RETURN
                      00036     
0019                  00037 DRV_LOAD_STEP
                      00038     ;Temporary
                      00039     ;RETLW   STEP0
                      00040     
Warning[207]: Found label after column 1. (DRV_CHCK_STEP0)
0019                  00041     DRV_CHCK_STEP0
                      00042     ;Check if step 0
0019   3000           00043     MOVLW   d'0'
001A   0270           00044     SUBWF   DRV_CUR_STEP, W
001B   1D03           00045     BTFSS   STATUS, Z
001C   2???           00046     GOTO    DRV_CHCK_STEP1
                      00047     ;else
001D   10F1           00048     BCF     ESTAT, DRV_NEXT_EMFVAL  ;Set next BEMF state to HIGH
001E   3429           00049     RETLW   STEP0
                      00050     
Warning[207]: Found label after column 1. (DRV_CHCK_STEP1)
001F                  00051     DRV_CHCK_STEP1
                      00052     ;Check if step 1
001F   3001           00053     MOVLW   d'1'
0020   0270           00054     SUBWF   DRV_CUR_STEP, W
0021   1D03           00055     BTFSS   STATUS, Z
0022   2???           00056     GOTO    DRV_CHCK_STEP2
                      00057     ;else
0023   14F1           00058     BSF     ESTAT, DRV_NEXT_EMFVAL  ;Set next BEMF state to LOW
0024   342C           00059     RETLW   STEP1
                      00060 
Warning[207]: Found label after column 1. (DRV_CHCK_STEP2)
0025                  00061     DRV_CHCK_STEP2
                      00062     ;Check if step 2
0025   3002           00063     MOVLW   d'2'
0026   0270           00064     SUBWF   DRV_CUR_STEP, W
0027   1D03           00065     BTFSS   STATUS, Z
0028   2???           00066     GOTO    DRV_CHCK_STEP3
                      00067     ;else
0029   10F1           00068     BCF     ESTAT, DRV_NEXT_EMFVAL  ;Set next BEMF state to HIGH
002A   3434           00069     RETLW   STEP2
                      00070     
Warning[207]: Found label after column 1. (DRV_CHCK_STEP3)
002B                  00071     DRV_CHCK_STEP3
                      00072     ;Check if step 3
002B   3003           00073     MOVLW   d'3'
002C   0270           00074     SUBWF   DRV_CUR_STEP, W
002D   1D03           00075     BTFSS   STATUS, Z
002E   2???           00076     GOTO    DRV_CHCK_STEP4
                      00077     ;else
002F   14F1           00078     BSF     ESTAT, DRV_NEXT_EMFVAL  ;Set next BEMF state to LOW
0030   3432           00079     RETLW   STEP3
                      00080     
Warning[207]: Found label after column 1. (DRV_CHCK_STEP4)
MPASM 5.76                          MAIN.ASM   2-9-2018  13:22:11         PAGE  4


LOC  OBJECT CODE     LINE SOURCE TEXT
  VALUE

0031                  00081     DRV_CHCK_STEP4
                      00082     ;Check if step 4
0031   3004           00083     MOVLW   d'4'
0032   0270           00084     SUBWF   DRV_CUR_STEP, W
0033   1D03           00085     BTFSS   STATUS, Z
0034   2???           00086     GOTO    DRV_CHCK_STEP5
                      00087     ;else
0035   10F1           00088     BCF     ESTAT, DRV_NEXT_EMFVAL  ;Set next BEMF state to HIGH
0036   341A           00089     RETLW   STEP4
                      00090     
Warning[207]: Found label after column 1. (DRV_CHCK_STEP5)
0037                  00091     DRV_CHCK_STEP5
                      00092     ;It is step 5 or above
0037   14F1           00093     BSF     ESTAT, DRV_NEXT_EMFVAL  ;Set next BEMF state to LOW
0038   3419           00094     RETLW   STEP5                   
                      00095     
0039                  00096 DRV_NEXT_STEP
                      00097     ;Return if driver state is off
0039   1C71           00098     BTFSS   ESTAT, DRV_RUN
003A   0008           00099     RETURN
                      00100     
003B   2???           00101     CALL    DRV_LOAD_STEP       ;Load correct step pin outputs into working
                      00102     
003C   1283           00103     BCF     STATUS, RP0         ;BANK 0
003D   0087           00104     MOVWF   PORTC               ;Update driver pins
                      00105     
003E   0AF0           00106     INCF    DRV_CUR_STEP, F     ;Increment step counter
                      00107     
                      00108     ;Reset current step if over step 5
003F   0870           00109     MOVFW   DRV_CUR_STEP
0040   3C05           00110     SUBLW   d'5'
0041   1C03           00111     BTFSS   STATUS, C
0042   01F0           00112     CLRF    DRV_CUR_STEP
                      00113     
0043   0008           00114     RETURN
                      00048 
                      00049 #INCLUDE    "BEMF.inc"
0044                  00001 BEMF_INIT
                      00002     ;Set up BEMF pins
0044   1683           00003     BSF     STATUS, RP0         ;BANK 1
0045   3007           00004     MOVLW   b'00000111'         ;Set BEMF pins to input
Message[302]: Register in operand not in bank 0.  Ensure that bank bits are correct.
0046   0485           00005     IORWF   TRISA, F            ;
0047   30F8           00006     MOVLW   b'11111000'         ;Make BEMF pins digital
Message[302]: Register in operand not in bank 0.  Ensure that bank bits are correct.
0048   0591           00007     ANDWF   ANSEL, F            ;
                      00008     
                      00009     ;Set up interrupt
0049   158B           00010     BSF     INTCON, RAIE        ;Enable PORTA interrupts
004A   100B           00011     BCF     INTCON, RAIF        ;Clear PORTA interrupt flag
                      00012     
004B   2???           00013     CALL    BEMF_UPDATE_INTPIN  ;Set to interrupt on correct pin 
                      00014     
MPASM 5.76                          MAIN.ASM   2-9-2018  13:22:11         PAGE  5


LOC  OBJECT CODE     LINE SOURCE TEXT
  VALUE

004C   0008           00015     RETURN
                      00016     
004D                  00017 BEMF_UPDATE_INTPIN
004D   2???           00018     CALL    DRV_LOAD_STEP       ;Load current step into working
004E   00F2           00019     MOVWF   TEMPA               ;Create copy of step
004F   00F3           00020     MOVWF   TEMPB               ;
                      00021     
0050   0CF3           00022     RRF     TEMPB, F            ;Move driver low side to high side position
0051   0CF3           00023     RRF     TEMPB, F            ;
0052   0CF3           00024     RRF     TEMPB, F            ;
                      00025     
0053   3007           00026     MOVLW   b'00000111'
Message[305]: Using default destination of 1 (file).
0054   05F2           00027     ANDWF   TEMPA               ;Mask away all bits except driver ID
Message[305]: Using default destination of 1 (file).
0055   05F3           00028     ANDWF   TEMPB               ;
                      00029     
0056   0872           00030     MOVF    TEMPA, W            ;Move high side drivers to working
0057   0673           00031     XORWF   TEMPB, W            ;Isolate the inactive driver path
                      00032     
0058   1683           00033     BSF     STATUS, RP0         ;BANK 1
Message[302]: Register in operand not in bank 0.  Ensure that bank bits are correct.
0059   0096           00034     MOVWF   IOCA                ;Update PORTA interrupt pin selector
                      00035     
005A   0008           00036     RETURN
                      00037     
005B                  00038 BEMF_TRIG
005B   1D71           00039     BTFSS   ESTAT, TMR_CLS_LOOP ;Check if closed loop mode disabled
005C   2???           00040     GOTO    BEMF_TRIG_END       ;Closed loop mode disabled
                      00041     
                      00042     ;Figure out if state change is a correct state change
005D   1683           00043     BSF     STATUS, RP0         ;BANK 1
Message[302]: Register in operand not in bank 0.  Ensure that bank bits are correct.
005E   0816           00044     MOVF    IOCA, W             ;Move PORTA interrupt pin selector into working
005F   1283           00045     BCF     STATUS, RP0         ;BANK 0
0060   0505           00046     ANDWF   PORTA, W            ;Isolate state of selected interrupt pin
                      00047     
Warning[207]: Found label after column 1. (BEMF_CHCK_LOW)
0061                  00048     BEMF_CHCK_LOW                   ;Check for HIGH->LOW zero crossing
0061   1D03           00049     BTFSS   STATUS, Z               ;Check if PORTA pin is HIGH
0062   2???           00050     GOTO    BEMF_CHCK_HIGH          ;PORTA pin is HIGH, goto high check
0063   18F1           00051     BTFSC   ESTAT, DRV_NEXT_EMFVAL  ;Check if NEXT_EMFVAL is not LOW
0064   2???           00052     GOTO    BEMF_INCR_TRIG          ;Mismatch between PORTA pin and val detected
                      00053     
0065   2???           00054     GOTO    BEMF_NEXT               ;PORTA pin and NEXT_EMFVAL low
                      00055     
Warning[207]: Found label after column 1. (BEMF_CHCK_HIGH)
0066                  00056     BEMF_CHCK_HIGH                  ;Check for LOW->HIGH zero crossing
0066   18F1           00057     BTFSC   ESTAT, DRV_NEXT_EMFVAL  ;Check if NEXT_EMFVAL is HIGH too
0067   2???           00058     GOTO    BEMF_NEXT               ;LOW->HIGH zero crossing confirmed
                      00059     ;else
Warning[207]: Found label after column 1. (BEMF_INCR_TRIG)
0068                  00060     BEMF_INCR_TRIG              ;Incorrect trigger, mismatch detected
MPASM 5.76                          MAIN.ASM   2-9-2018  13:22:11         PAGE  6


LOC  OBJECT CODE     LINE SOURCE TEXT
  VALUE

0068   100B           00061     BCF     INTCON, RAIF        ;Clear PORTA interrupt flag
                      00062     
0069   0008           00063     RETURN
                      00064     
Warning[207]: Found label after column 1. (BEMF_NEXT)
006A                  00065     BEMF_NEXT                   ;Correct state change, update driver pins
006A   2???           00066     CALL    DRV_NEXT_STEP       ;Update driver state
006B   2???           00067     CALL    BEMF_UPDATE_INTPIN  ;Set to interrupt on correct pin
                      00068    
Warning[207]: Found label after column 1. (BEMF_TRIG_END)
006C                  00069     BEMF_TRIG_END
006C   100B           00070     BCF     INTCON, RAIF        ;Clear PORTA interrupt flag
                      00071     
006D   0008           00072     RETURN
                      00050 #INCLUDE    "timer.inc"
006E                  00001 TMR_INIT
006E   1171           00002     BCF     ESTAT, TMR_CLS_LOOP ;Default to open loop mode
006F   01F4           00003     CLRF    TMR_CYCLES1         ;Reset timer counters
0070   01F5           00004     CLRF    TMR_CYCLES2         ;
                      00005     
0071   1683           00006     BSF     STATUS, RP0         ;Bank 1
0072   168B           00007     BSF     INTCON, T0IE        ;Enable Timer0 (8-bit) interrupts
Message[302]: Register in operand not in bank 0.  Ensure that bank bits are correct.
0073   1281           00008     BCF     OPTION_REG, T0CS    ;Use internal clock cycle for Timer0
0074   110B           00009     BCF     INTCON, T0IF        ;Clear Timer0 interrupt flag
                      00010     
0075   0064           00011     CLRWDT                      ;Clear WDT and ;prescaler 
0076   30F0           00012     MOVLW   b'11110000'         ;Assign prescaler to Timer0 (bit 3) and clear prescaler
Message[305]: Using default destination of 1 (file).
Message[302]: Register in operand not in bank 0.  Ensure that bank bits are correct.
0077   0581           00013     ANDWF   OPTION_REG          ;
0078   3002           00014     MOVLW   b'00000010'         ;Set prescaler to 1:8 (b'00000010')
Message[305]: Using default destination of 1 (file).
Message[302]: Register in operand not in bank 0.  Ensure that bank bits are correct.
0079   0481           00015     IORWF   OPTION_REG          ;
                      00016 
007A   0008           00017     RETURN
                      00018     
007B                  00019 TMR_TRIG
007B   1971           00020    BTFSC    ESTAT, TMR_CLS_LOOP ;Check if closed loop mode enabled
007C   2???           00021    GOTO     TMR_TRIG_END        ;Closed loop mode enabled
                      00022    
007D   0875           00023    MOVF     TMR_CYCLES2, W      ;Check if above or equal to cycle limit
007E   3C01           00024    SUBLW    d'1'                ;Ensures that we check equality
007F   3CFE           00025    SUBLW    TMR_OPN_LP_LIM      ;Subtract to check carry flag
0080   1C03           00026    BTFSS    STATUS, C           ;Check if above (and technically equal to too)
0081   1571           00027    BSF      ESTAT, TMR_CLS_LOOP ;
                      00028    
0082   1971           00029    BTFSC    ESTAT, TMR_CLS_LOOP ;Check if closed loop mode enabled
0083   2???           00030    GOTO     TMR_TRIG_END        ;Closed loop mode enabled
                      00031    
0084   2???           00032    CALL     DRV_NEXT_STEP       ;Increment driver state
                      00033    
MPASM 5.76                          MAIN.ASM   2-9-2018  13:22:11         PAGE  7


LOC  OBJECT CODE     LINE SOURCE TEXT
  VALUE

0085   0BF4           00034    DECFSZ   TMR_CYCLES1, F
0086   2???           00035    GOTO     TMR_TRIG_END
                      00036    
0087   0AF5           00037    INCF     TMR_CYCLES2, F      ;Increment cycle
                      00038    
Warning[207]: Found label after column 1. (TMR_TRIG_END)
0088                  00039    TMR_TRIG_END
0088   110B           00040    BCF      INTCON, T0IF        ;Clear Timer0 interrupt flag
                      00041     
0089   0008           00042    RETURN
                      00051 
                      00052 #INCLUDE    "ISR.inc"
008A                  00001 ISR_INIT    
008A   178B           00002     BSF     INTCON, GIE             ;Enable general interrupts
                      00003     
008B   0008           00004     RETURN
                      00005 
008C                  00006 ISR
008C   190B           00007     BTFSC   INTCON, T0IF            ;Handle Timer0 interrupts
008D   2???           00008     CALL    TMR_TRIG
                      00009     
008E   198B           00010     BTFSC   INTCON, RAIE            ;Handle PORTA change interrupts
008F   2???           00011     CALL    BEMF_TRIG
                      00012     
0090   0009           00013     RETFIE
                      00053     
                      00054 ; ******* SETUP *****************************************************
0091                  00055 INIT
0091   2???           00056     CALL    DRV_INIT
                      00057     
0092   2???           00058     CALL    BEMF_INIT
0093   2???           00059     CALL    TMR_INIT
                      00060     
0094   2???           00061     CALL    DRV_START
0095   2???           00062     CALL    ISR_INIT
                      00063     
                      00064     
                      00065     
0096                  00066 LOOP
                      00067     ;found this guy... he's basically doing the same thing as you
                      00068     ;he even looked at a few of the same phase graphs
                      00069     ;https://simple-circuit.com/arduino-sensorless-bldc-motor-controller-esc/
                      00070     
                      00071     ;implement some kind of delay before BEMF_NEXT (phase shift)
                      00072     ;speed control
0096   2???           00073     GOTO    LOOP                ;Goto start of loop
                      00074     
Warning[205]: Found directive in column 1. (END)
30C4                  00075 END
MPASM 5.76                          MAIN.ASM   2-9-2018  13:22:11         PAGE  8


SYMBOL TABLE
  LABEL                             VALUE 

ADCON0                            0000001F
ADCON1                            0000009F
ADCS0                             00000004
ADCS1                             00000005
ADCS2                             00000006
ADFM                              00000007
ADIE                              00000006
ADIF                              00000006
ADON                              00000000
ADRESH                            0000001E
ADRESL                            0000009E
ANS0                              00000000
ANS1                              00000001
ANS2                              00000002
ANS3                              00000003
ANS4                              00000004
ANS5                              00000005
ANS6                              00000006
ANS7                              00000007
ANSEL                             00000091
BEMF_CHCK_HIGH                    00000066
BEMF_CHCK_LOW                     00000061
BEMF_INCR_TRIG                    00000068
BEMF_INIT                         00000044
BEMF_NEXT                         0000006A
BEMF_TRIG                         0000005B
BEMF_TRIG_END                     0000006C
BEMF_UPDATE_INTPIN                0000004D
C                                 00000000
C1IE                              00000003
C1IF                              00000003
C1INV                             00000004
C1OUT                             00000006
C2IE                              00000004
C2IF                              00000004
C2INV                             00000005
C2OUT                             00000007
C2SYNC                            00000000
CCP1CON                           00000015
CCP1IE                            00000005
CCP1IF                            00000005
CCP1M0                            00000000
CCP1M1                            00000001
CCP1M2                            00000002
CCP1M3                            00000003
CCPR1                             00000013
CCPR1H                            00000014
CCPR1L                            00000013
CHS0                              00000002
CHS1                              00000003
CHS2                              00000004
CIS                               00000003
CM0                               00000000
MPASM 5.76                          MAIN.ASM   2-9-2018  13:22:11         PAGE  9


SYMBOL TABLE
  LABEL                             VALUE 

CM1                               00000001
CM2                               00000002
CMCON0                            00000019
CMCON1                            0000001A
DC                                00000001
DC1B0                             00000004
DC1B1                             00000005
DRV_CHCK_STEP0                    00000019
DRV_CHCK_STEP1                    0000001F
DRV_CHCK_STEP2                    00000025
DRV_CHCK_STEP3                    0000002B
DRV_CHCK_STEP4                    00000031
DRV_CHCK_STEP5                    00000037
DRV_CUR_STEP                      00000070
DRV_INIT                          00000005
DRV_LOAD_STEP                     00000019
DRV_NEXT_EMFVAL                   00000001
DRV_NEXT_STEP                     00000039
DRV_RUN                           00000000
DRV_START                         00000012
DRV_STOP                          00000014
ECCPAS                            00000017
ECCPAS0                           00000004
ECCPAS1                           00000005
ECCPAS2                           00000006
ECCPASE                           00000007
ECCPIE                            00000005
ECCPIF                            00000005
EEADR                             0000009B
EECON1                            0000009C
EECON2                            0000009D
EEDAT                             0000009A
EEDATA                            0000009A
EEIE                              00000007
EEIF                              00000007
ESTAT                             00000071
F                                 00000001
FSR                               00000004
GIE                               00000007
GO                                00000001
GO_DONE                           00000001
GO_NOT_DONE                       00000001
HTS                               00000002
INDF                              00000000
INIT                              00000091
INTCON                            0000000B
INTE                              00000004
INTEDG                            00000006
INTF                              00000001
IOC                               00000096
IOC0                              00000000
IOC1                              00000001
IOC2                              00000002
MPASM 5.76                          MAIN.ASM   2-9-2018  13:22:11         PAGE 10


SYMBOL TABLE
  LABEL                             VALUE 

IOC3                              00000003
IOC4                              00000004
IOC5                              00000005
IOCA                              00000096
IOCA0                             00000000
IOCA1                             00000001
IOCA2                             00000002
IOCA3                             00000003
IOCA4                             00000004
IOCA5                             00000005
IRCF0                             00000004
IRCF1                             00000005
IRCF2                             00000006
IRP                               00000007
ISR                               0000008C
ISR_INIT                          0000008A
LOOP                              00000096
LTS                               00000001
NOT_BOD                           00000000
NOT_BOR                           00000000
NOT_DONE                          00000001
NOT_PD                            00000003
NOT_POR                           00000001
NOT_RAPU                          00000007
NOT_T1SYNC                        00000002
NOT_TO                            00000004
OPTION_REG                        00000081
OSCCON                            0000008F
OSCTUNE                           00000090
OSFIE                             00000002
OSFIF                             00000002
OSTS                              00000003
P1M0                              00000006
P1M1                              00000007
PCL                               00000002
PCLATH                            0000000A
PCON                              0000008E
PDC0                              00000000
PDC1                              00000001
PDC2                              00000002
PDC3                              00000003
PDC4                              00000004
PDC5                              00000005
PDC6                              00000006
PEIE                              00000006
PIE1                              0000008C
PIR1                              0000000C
PORTA                             00000005
PORTC                             00000007
PR2                               00000092
PRSEN                             00000007
PS0                               00000000
PS1                               00000001
MPASM 5.76                          MAIN.ASM   2-9-2018  13:22:11         PAGE 11


SYMBOL TABLE
  LABEL                             VALUE 

PS2                               00000002
PSA                               00000003
PSSAC0                            00000002
PSSAC1                            00000003
PSSBD0                            00000000
PSSBD1                            00000001
PWM1CON                           00000016
RA0                               00000000
RA1                               00000001
RA2                               00000002
RA3                               00000003
RA4                               00000004
RA5                               00000005
RAIE                              00000003
RAIF                              00000000
RC0                               00000000
RC1                               00000001
RC2                               00000002
RC3                               00000003
RC4                               00000004
RC5                               00000005
RD                                00000000
RP0                               00000005
RP1                               00000006
SBODEN                            00000004
SBOREN                            00000004
SCS                               00000000
STATUS                            00000003
STEP0                             00000029
STEP1                             0000002C
STEP2                             00000034
STEP3                             00000032
STEP4                             0000001A
STEP5                             00000019
STEPOFF                           00000038
SWDTEN                            00000000
T0CS                              00000005
T0IE                              00000005
T0IF                              00000002
T0SE                              00000004
T1CKPS0                           00000004
T1CKPS1                           00000005
T1CON                             00000010
T1GINV                            00000007
T1GSS                             00000001
T1IE                              00000000
T1IF                              00000000
T1OSCEN                           00000003
T2CKPS0                           00000000
T2CKPS1                           00000001
T2CON                             00000012
T2IE                              00000001
T2IF                              00000001
MPASM 5.76                          MAIN.ASM   2-9-2018  13:22:11         PAGE 12


SYMBOL TABLE
  LABEL                             VALUE 

TEMPA                             00000072
TEMPB                             00000073
TMR0                              00000001
TMR0IE                            00000005
TMR0IF                            00000002
TMR1                              0000000E
TMR1CS                            00000001
TMR1GE                            00000006
TMR1H                             0000000F
TMR1IE                            00000000
TMR1IF                            00000000
TMR1L                             0000000E
TMR1ON                            00000000
TMR2                              00000011
TMR2IE                            00000001
TMR2IF                            00000001
TMR2ON                            00000002
TMR_CLS_LOOP                      00000002
TMR_CYCLES1                       00000074
TMR_CYCLES2                       00000075
TMR_INIT                          0000006E
TMR_OPN_LP_LIM                    000000FE
TMR_TRIG                          0000007B
TMR_TRIG_END                      00000088
TOUTPS0                           00000003
TOUTPS1                           00000004
TOUTPS2                           00000005
TOUTPS3                           00000006
TRISA                             00000085
TRISA0                            00000000
TRISA1                            00000001
TRISA2                            00000002
TRISA3                            00000003
TRISA4                            00000004
TRISA5                            00000005
TRISC                             00000087
TRISC0                            00000000
TRISC1                            00000001
TRISC2                            00000002
TRISC3                            00000003
TRISC4                            00000004
TRISC5                            00000005
TUN0                              00000000
TUN1                              00000001
TUN2                              00000002
TUN3                              00000003
TUN4                              00000004
ULPWUE                            00000005
VCFG                              00000006
VR0                               00000000
VR1                               00000001
VR2                               00000002
VR3                               00000003
MPASM 5.76                          MAIN.ASM   2-9-2018  13:22:11         PAGE 13


SYMBOL TABLE
  LABEL                             VALUE 

VRCON                             00000099
VREN                              00000007
VRR                               00000005
W                                 00000000
WDTCON                            00000018
WDTPS0                            00000001
WDTPS1                            00000002
WDTPS2                            00000003
WDTPS3                            00000004
WPU                               00000095
WPU0                              00000000
WPU1                              00000001
WPU2                              00000002
WPU4                              00000004
WPU5                              00000005
WPUA                              00000095
WPUA0                             00000000
WPUA1                             00000001
WPUA2                             00000002
WPUA4                             00000004
WPUA5                             00000005
WR                                00000001
WREN                              00000002
WRERR                             00000003
Z                                 00000002
_BOD_NSLEEP                       00003EFF
_BOD_OFF                          00003CFF
_BOD_ON                           00003FFF
_BOD_SBODEN                       00003DFF
_BOREN_NSLEEP                     00003EFF
_BOREN_OFF                        00003CFF
_BOREN_ON                         00003FFF
_BOREN_SBODEN                     00003DFF
_CONFIG                           00002007
_CPD_OFF                          00003FFF
_CPD_ON                           00003F7F
_CP_OFF                           00003FFF
_CP_ON                            00003FBF
_DEVID1                           00002006
_EC_OSC                           00003FFB
_EXTRC                            00003FFF
_EXTRCIO                          00003FFE
_EXTRC_OSC_CLKOUT                 00003FFF
_EXTRC_OSC_NOCLKOUT               00003FFE
_FCMEN_OFF                        000037FF
_FCMEN_ON                         00003FFF
_FOSC_EC                          00003FFB
_FOSC_EXTRCCLK                    00003FFF
_FOSC_EXTRCIO                     00003FFE
_FOSC_HS                          00003FFA
_FOSC_INTOSCCLK                   00003FFD
_FOSC_INTOSCIO                    00003FFC
_FOSC_LP                          00003FF8
MPASM 5.76                          MAIN.ASM   2-9-2018  13:22:11         PAGE 14


SYMBOL TABLE
  LABEL                             VALUE 

_FOSC_XT                          00003FF9
_HS_OSC                           00003FFA
_IDLOC0                           00002000
_IDLOC1                           00002001
_IDLOC2                           00002002
_IDLOC3                           00002003
_IESO_OFF                         00003BFF
_IESO_ON                          00003FFF
_INTOSC                           00003FFD
_INTOSCIO                         00003FFC
_INTRC_OSC_CLKOUT                 00003FFD
_INTRC_OSC_NOCLKOUT               00003FFC
_LP_OSC                           00003FF8
_MCLRE_OFF                        00003FDF
_MCLRE_ON                         00003FFF
_PWRTE_OFF                        00003FFF
_PWRTE_ON                         00003FEF
_WDTE_OFF                         00003FF7
_WDTE_ON                          00003FFF
_WDT_OFF                          00003FF7
_WDT_ON                           00003FFF
_XT_OSC                           00003FF9
__16F684                          00000001

Errors   :     0
Warnings :    26 reported,     0 suppressed
Messages :    14 reported,     0 suppressed

